target datalayout = "e-m:e-p270:32:32-p271:32:32-p272:64:64-i64:64-i128:128-f80:128-n8:16:32:64-S128"
target triple = "x86_64-unknown-linux-gnu"

%class.btVector3 = type { [4 x float] }

; Function Attrs: mustprogress nounwind uwtable
define linkonce_odr dso_local noundef float @_ZNK9btVector33dotERKS_(ptr noundef nonnull align 4 dereferenceable(16) %this, ptr noundef nonnull align 4 dereferenceable(16) %v) #1 comdat align 2 {
entry:
  %this.addr = alloca ptr, align 8
  %v.addr = alloca ptr, align 8
  store ptr %this, ptr %this.addr, align 8
  store ptr %v, ptr %v.addr, align 8
  %this1 = load ptr, ptr %this.addr, align 8
  %m_floats = getelementptr inbounds %class.btVector3, ptr %this1, i32 0, i32 0
  %arrayidx = getelementptr inbounds [4 x float], ptr %m_floats, i64 0, i64 0
  %0 = load float, ptr %arrayidx, align 4
  %1 = load ptr, ptr %v.addr, align 8
  %m_floats2 = getelementptr inbounds %class.btVector3, ptr %1, i32 0, i32 0
  %arrayidx3 = getelementptr inbounds [4 x float], ptr %m_floats2, i64 0, i64 0
  %2 = load float, ptr %arrayidx3, align 4
  %m_floats4 = getelementptr inbounds %class.btVector3, ptr %this1, i32 0, i32 0
  %arrayidx5 = getelementptr inbounds [4 x float], ptr %m_floats4, i64 0, i64 1
  %3 = load float, ptr %arrayidx5, align 4
  %4 = load ptr, ptr %v.addr, align 8
  %m_floats6 = getelementptr inbounds %class.btVector3, ptr %4, i32 0, i32 0
  %arrayidx7 = getelementptr inbounds [4 x float], ptr %m_floats6, i64 0, i64 1
  %5 = load float, ptr %arrayidx7, align 4
  %mul8 = fmul float %3, %5
  %6 = call float @llvm.fmuladd.f32(float %0, float %2, float %mul8)
  %m_floats9 = getelementptr inbounds %class.btVector3, ptr %this1, i32 0, i32 0
  %arrayidx10 = getelementptr inbounds [4 x float], ptr %m_floats9, i64 0, i64 2
  %7 = load float, ptr %arrayidx10, align 4
  %8 = load ptr, ptr %v.addr, align 8
  %m_floats11 = getelementptr inbounds %class.btVector3, ptr %8, i32 0, i32 0
  %arrayidx12 = getelementptr inbounds [4 x float], ptr %m_floats11, i64 0, i64 2
  %9 = load float, ptr %arrayidx12, align 4
  %10 = call float @llvm.fmuladd.f32(float %7, float %9, float %6)
  ret float %10
}

; Function Attrs: mustprogress nounwind uwtable
define linkonce_odr dso_local noundef i64 @_ZNK9btVector36maxDotEPKS_lRf(ptr noundef nonnull align 4 dereferenceable(16) %this, ptr noundef %array, i64 noundef %array_count, ptr noundef nonnull align 4 dereferenceable(4) %dotOut) #1 comdat align 2 {
entry:
  %this.addr = alloca ptr, align 8
  %array.addr = alloca ptr, align 8
  %array_count.addr = alloca i64, align 8
  %dotOut.addr = alloca ptr, align 8
  %maxDot1 = alloca float, align 4
  %i = alloca i32, align 4
  %ptIndex = alloca i32, align 4
  %dot = alloca float, align 4
  store ptr %this, ptr %this.addr, align 8
  store ptr %array, ptr %array.addr, align 8
  store i64 %array_count, ptr %array_count.addr, align 8
  store ptr %dotOut, ptr %dotOut.addr, align 8
  %this1 = load ptr, ptr %this.addr, align 8
  store float 0xC7EFFFFFE0000000, ptr %maxDot1, align 4
  store i32 0, ptr %i, align 4
  store i32 -1, ptr %ptIndex, align 4
  store i32 0, ptr %i, align 4
  br label %for.cond

for.cond:                                         ; preds = %for.inc, %entry
  %0 = load i32, ptr %i, align 4
  %conv = sext i32 %0 to i64
  %1 = load i64, ptr %array_count.addr, align 8
  %cmp = icmp slt i64 %conv, %1
  br i1 %cmp, label %for.body, label %for.end

for.body:                                         ; preds = %for.cond
  %2 = load ptr, ptr %array.addr, align 8
  %3 = load i32, ptr %i, align 4
  %idxprom = sext i32 %3 to i64
  %arrayidx = getelementptr inbounds %class.btVector3, ptr %2, i64 %idxprom
  %call = call noundef float @_ZNK9btVector33dotERKS_(ptr noundef nonnull align 4 dereferenceable(16) %arrayidx, ptr noundef nonnull align 4 dereferenceable(16) %this1)
  store float %call, ptr %dot, align 4
  %4 = load float, ptr %dot, align 4
  %5 = load float, ptr %maxDot1, align 4
  %cmp2 = fcmp ogt float %4, %5
  br i1 %cmp2, label %if.then, label %if.end

if.then:                                          ; preds = %for.body
  %6 = load float, ptr %dot, align 4
  store float %6, ptr %maxDot1, align 4
  %7 = load i32, ptr %i, align 4
  store i32 %7, ptr %ptIndex, align 4
  br label %if.end

if.end:                                           ; preds = %if.then, %for.body
  br label %for.inc

for.inc:                                          ; preds = %if.end
  %8 = load i32, ptr %i, align 4
  %inc = add nsw i32 %8, 1
  store i32 %inc, ptr %i, align 4
  br label %for.cond, !llvm.loop !16

for.end:                                          ; preds = %for.cond
  %9 = load float, ptr %maxDot1, align 4
  %10 = load ptr, ptr %dotOut.addr, align 8
  store float %9, ptr %10, align 4
  %11 = load i32, ptr %ptIndex, align 4
  %conv3 = sext i32 %11 to i64
  ret i64 %conv3
}

; Function Attrs: mustprogress nounwind uwtable
define linkonce_odr dso_local noundef ptr @_ZN9btVector3cvPfEv(ptr noundef nonnull align 4 dereferenceable(16) %this) #1 comdat align 2 {
entry:
  %this.addr = alloca ptr, align 8
  store ptr %this, ptr %this.addr, align 8
  %this1 = load ptr, ptr %this.addr, align 8
  %m_floats = getelementptr inbounds %class.btVector3, ptr %this1, i32 0, i32 0
  %arrayidx = getelementptr inbounds [4 x float], ptr %m_floats, i64 0, i64 0
  ret ptr %arrayidx
}

; Function Attrs: mustprogress nounwind uwtable
define linkonce_odr dso_local void @_ZN9btVector3C2Ev(ptr noundef nonnull align 4 dereferenceable(16) %this) unnamed_addr #1 comdat align 2 {
entry:
  %this.addr = alloca ptr, align 8
  store ptr %this, ptr %this.addr, align 8
  ret void
}

; Function Attrs: mustprogress uwtable
define dso_local void @_ZNK23btPolyhedralConvexShape49batchedUnitVectorGetSupportingVertexWithoutMarginEPK9btVector3PS0_i(ptr noundef nonnull align 8 dereferenceable(80) %this, ptr noundef %vectors, ptr noundef %supportVerticesOut, i32 noundef %numVectors) unnamed_addr #2 align 2 {
entry:
  %this.addr = alloca ptr, align 8
  %vectors.addr = alloca ptr, align 8
  %supportVerticesOut.addr = alloca ptr, align 8
  %numVectors.addr = alloca i32, align 4
  %i = alloca i32, align 4
  %vtx = alloca %class.btVector3, align 4
  %newDot = alloca float, align 4
  %j = alloca i32, align 4
  %vec = alloca ptr, align 8
  %k = alloca i32, align 4
  %temp = alloca [128 x %class.btVector3], align 16
  %inner_count = alloca i32, align 4
  store ptr %this, ptr %this.addr, align 8
  store ptr %vectors, ptr %vectors.addr, align 8
  store ptr %supportVerticesOut, ptr %supportVerticesOut.addr, align 8
  store i32 %numVectors, ptr %numVectors.addr, align 4
  %this1 = load ptr, ptr %this.addr, align 8
  call void @_ZN9btVector3C2Ev(ptr noundef nonnull align 4 dereferenceable(16) %vtx)
  store i32 0, ptr %i, align 4
  br label %for.cond

for.cond:                                         ; preds = %for.inc, %entry
  %0 = load i32, ptr %i, align 4
  %1 = load i32, ptr %numVectors.addr, align 4
  %cmp = icmp slt i32 %0, %1
  br i1 %cmp, label %for.body, label %for.end

for.body:                                         ; preds = %for.cond
  %2 = load ptr, ptr %supportVerticesOut.addr, align 8
  %3 = load i32, ptr %i, align 4
  %idxprom = sext i32 %3 to i64
  %arrayidx = getelementptr inbounds %class.btVector3, ptr %2, i64 %idxprom
  %call = call noundef ptr @_ZN9btVector3cvPfEv(ptr noundef nonnull align 4 dereferenceable(16) %arrayidx)
  %arrayidx2 = getelementptr inbounds float, ptr %call, i64 3
  store float 0xC3ABC16D60000000, ptr %arrayidx2, align 4
  br label %for.inc

for.inc:                                          ; preds = %for.body
  %4 = load i32, ptr %i, align 4
  %inc = add nsw i32 %4, 1
  store i32 %inc, ptr %i, align 4
  br label %for.cond, !llvm.loop !17

for.end:                                          ; preds = %for.cond
  store i32 0, ptr %j, align 4
  br label %for.cond3

for.cond3:                                        ; preds = %for.inc47, %for.end
  %5 = load i32, ptr %j, align 4
  %6 = load i32, ptr %numVectors.addr, align 4
  %cmp4 = icmp slt i32 %5, %6
  br i1 %cmp4, label %for.body5, label %for.end49

for.body5:                                        ; preds = %for.cond3
  %7 = load ptr, ptr %vectors.addr, align 8
  %8 = load i32, ptr %j, align 4
  %idxprom6 = sext i32 %8 to i64
  %arrayidx7 = getelementptr inbounds %class.btVector3, ptr %7, i64 %idxprom6
  store ptr %arrayidx7, ptr %vec, align 8
  store i32 0, ptr %k, align 4
  br label %for.cond8

for.cond8:                                        ; preds = %for.inc45, %for.body5
  %9 = load i32, ptr %k, align 4
  %vtable = load ptr, ptr %this1, align 8
  %vfn = getelementptr inbounds ptr, ptr %vtable, i64 25
  %10 = load ptr, ptr %vfn, align 8
  %call9 = call noundef i32 %10(ptr noundef nonnull align 8 dereferenceable(80) %this1)
  %cmp10 = icmp slt i32 %9, %call9
  br i1 %cmp10, label %for.body11, label %for.end46

for.body11:                                       ; preds = %for.cond8
  %array.begin = getelementptr inbounds [128 x %class.btVector3], ptr %temp, i32 0, i32 0
  %arrayctor.end = getelementptr inbounds %class.btVector3, ptr %array.begin, i64 128
  br label %arrayctor.loop

arrayctor.loop:                                   ; preds = %arrayctor.loop, %for.body11
  %arrayctor.cur = phi ptr [ %array.begin, %for.body11 ], [ %arrayctor.next, %arrayctor.loop ]
  call void @_ZN9btVector3C2Ev(ptr noundef nonnull align 4 dereferenceable(16) %arrayctor.cur)
  %arrayctor.next = getelementptr inbounds %class.btVector3, ptr %arrayctor.cur, i64 1
  %arrayctor.done = icmp eq ptr %arrayctor.next, %arrayctor.end
  br i1 %arrayctor.done, label %arrayctor.cont, label %arrayctor.loop

arrayctor.cont:                                   ; preds = %arrayctor.loop
  %vtable12 = load ptr, ptr %this1, align 8
  %vfn13 = getelementptr inbounds ptr, ptr %vtable12, i64 25
  %11 = load ptr, ptr %vfn13, align 8
  %call14 = call noundef i32 %11(ptr noundef nonnull align 8 dereferenceable(80) %this1)
  %12 = load i32, ptr %k, align 4
  %sub = sub nsw i32 %call14, %12
  %cmp15 = icmp slt i32 %sub, 128
  br i1 %cmp15, label %cond.true, label %cond.false

cond.true:                                        ; preds = %arrayctor.cont
  %vtable16 = load ptr, ptr %this1, align 8
  %vfn17 = getelementptr inbounds ptr, ptr %vtable16, i64 25
  %13 = load ptr, ptr %vfn17, align 8
  %call18 = call noundef i32 %13(ptr noundef nonnull align 8 dereferenceable(80) %this1)
  %14 = load i32, ptr %k, align 4
  %sub19 = sub nsw i32 %call18, %14
  br label %cond.end

cond.false:                                       ; preds = %arrayctor.cont
  br label %cond.end

cond.end:                                         ; preds = %cond.false, %cond.true
  %cond = phi i32 [ %sub19, %cond.true ], [ 128, %cond.false ]
  store i32 %cond, ptr %inner_count, align 4
  store i32 0, ptr %i, align 4
  br label %for.cond20

for.cond20:                                       ; preds = %for.inc27, %cond.end
  %15 = load i32, ptr %i, align 4
  %16 = load i32, ptr %inner_count, align 4
  %cmp21 = icmp slt i32 %15, %16
  br i1 %cmp21, label %for.body22, label %for.end29

for.body22:                                       ; preds = %for.cond20
  %17 = load i32, ptr %i, align 4
  %18 = load i32, ptr %i, align 4
  %idxprom23 = sext i32 %18 to i64
  %arrayidx24 = getelementptr inbounds [128 x %class.btVector3], ptr %temp, i64 0, i64 %idxprom23
  %vtable25 = load ptr, ptr %this1, align 8
  %vfn26 = getelementptr inbounds ptr, ptr %vtable25, i64 28
  %19 = load ptr, ptr %vfn26, align 8
  call void %19(ptr noundef nonnull align 8 dereferenceable(80) %this1, i32 noundef %17, ptr noundef nonnull align 4 dereferenceable(16) %arrayidx24)
  br label %for.inc27

for.inc27:                                        ; preds = %for.body22
  %20 = load i32, ptr %i, align 4
  %inc28 = add nsw i32 %20, 1
  store i32 %inc28, ptr %i, align 4
  br label %for.cond20, !llvm.loop !18

for.end29:                                        ; preds = %for.cond20
  %21 = load ptr, ptr %vec, align 8
  %arraydecay = getelementptr inbounds [128 x %class.btVector3], ptr %temp, i64 0, i64 0
  %22 = load i32, ptr %inner_count, align 4
  %conv = sext i32 %22 to i64
  %call30 = call noundef i64 @_ZNK9btVector36maxDotEPKS_lRf(ptr noundef nonnull align 4 dereferenceable(16) %21, ptr noundef %arraydecay, i64 noundef %conv, ptr noundef nonnull align 4 dereferenceable(4) %newDot)
  %conv31 = trunc i64 %call30 to i32
  store i32 %conv31, ptr %i, align 4
  %23 = load float, ptr %newDot, align 4
  %24 = load ptr, ptr %supportVerticesOut.addr, align 8
  %25 = load i32, ptr %j, align 4
  %idxprom32 = sext i32 %25 to i64
  %arrayidx33 = getelementptr inbounds %class.btVector3, ptr %24, i64 %idxprom32
  %call34 = call noundef ptr @_ZN9btVector3cvPfEv(ptr noundef nonnull align 4 dereferenceable(16) %arrayidx33)
  %arrayidx35 = getelementptr inbounds float, ptr %call34, i64 3
  %26 = load float, ptr %arrayidx35, align 4
  %cmp36 = fcmp ogt float %23, %26
  br i1 %cmp36, label %if.then, label %if.end

if.then:                                          ; preds = %for.end29
  %27 = load i32, ptr %i, align 4
  %idxprom37 = sext i32 %27 to i64
  %arrayidx38 = getelementptr inbounds [128 x %class.btVector3], ptr %temp, i64 0, i64 %idxprom37
  %28 = load ptr, ptr %supportVerticesOut.addr, align 8
  %29 = load i32, ptr %j, align 4
  %idxprom39 = sext i32 %29 to i64
  %arrayidx40 = getelementptr inbounds %class.btVector3, ptr %28, i64 %idxprom39
  call void @llvm.memcpy.p0.p0.i64(ptr align 4 %arrayidx40, ptr align 16 %arrayidx38, i64 16, i1 false)
  %30 = load float, ptr %newDot, align 4
  %31 = load ptr, ptr %supportVerticesOut.addr, align 8
  %32 = load i32, ptr %j, align 4
  %idxprom41 = sext i32 %32 to i64
  %arrayidx42 = getelementptr inbounds %class.btVector3, ptr %31, i64 %idxprom41
  %call43 = call noundef ptr @_ZN9btVector3cvPfEv(ptr noundef nonnull align 4 dereferenceable(16) %arrayidx42)
  %arrayidx44 = getelementptr inbounds float, ptr %call43, i64 3
  store float %30, ptr %arrayidx44, align 4
  br label %if.end

if.end:                                           ; preds = %if.then, %for.end29
  br label %for.inc45

for.inc45:                                        ; preds = %if.end
  %33 = load i32, ptr %k, align 4
  %add = add nsw i32 %33, 128
  store i32 %add, ptr %k, align 4
  br label %for.cond8, !llvm.loop !19

for.end46:                                        ; preds = %for.cond8
  br label %for.inc47

for.inc47:                                        ; preds = %for.end46
  %34 = load i32, ptr %j, align 4
  %inc48 = add nsw i32 %34, 1
  store i32 %inc48, ptr %j, align 4
  br label %for.cond3, !llvm.loop !20

for.end49:                                        ; preds = %for.cond3
  ret void
}