; Function Attrs: mustprogress uwtable
define dso_local void @_ZNK23btPolyhedralConvexShape49batchedUnitVectorGetSupportingVertexWithoutMarginEPK9btVector3PS0_i(ptr noundef nonnull align 8 dereferenceable(80) %this, ptr nocapture noundef readonly %vectors, ptr nocapture noundef %supportVerticesOut, i32 noundef %numVectors) unnamed_addr #0 align 2 {
entry:
  %temp = alloca [128 x %class.btVector3], align 16
  %cmp22 = icmp sgt i32 %numVectors, 0
  br i1 %cmp22, label %for.body.preheader, label %for.end49

for.body.preheader:                               ; preds = %entry
  %wide.trip.count = zext nneg i32 %numVectors to i64
  br label %for.body

for.cond3.preheader:                              ; preds = %for.body
  br i1 %cmp22, label %for.body5.preheader, label %for.end49

for.body5.preheader:                              ; preds = %for.cond3.preheader
  %wide.trip.count42 = zext nneg i32 %numVectors to i64
  br label %for.body5

for.body:                                         ; preds = %for.body.preheader, %for.body
  %indvars.iv = phi i64 [ 0, %for.body.preheader ], [ %indvars.iv.next, %for.body ]
  %arrayidx2 = getelementptr inbounds %class.btVector3, ptr %supportVerticesOut, i64 %indvars.iv, i32 0, i64 3
  store float 0xC3ABC16D60000000, ptr %arrayidx2, align 4
  %indvars.iv.next = add nuw nsw i64 %indvars.iv, 1
  %exitcond.not = icmp eq i64 %indvars.iv.next, %wide.trip.count
  br i1 %exitcond.not, label %for.cond3.preheader, label %for.body, !llvm.loop !18

for.body5:                                        ; preds = %for.body5.preheader, %for.inc47
  %indvars.iv39 = phi i64 [ 0, %for.body5.preheader ], [ %indvars.iv.next40, %for.inc47 ]
  %arrayidx7 = getelementptr inbounds %class.btVector3, ptr %vectors, i64 %indvars.iv39
  %vtable26 = load ptr, ptr %this, align 8
  %vfn27 = getelementptr inbounds i8, ptr %vtable26, i64 200
  %0 = load ptr, ptr %vfn27, align 8
  %call928 = call noundef i32 %0(ptr noundef nonnull align 8 dereferenceable(80) %this)
  %cmp1029 = icmp sgt i32 %call928, 0
  br i1 %cmp1029, label %arrayctor.loop.preheader.lr.ph, label %for.inc47

arrayctor.loop.preheader.lr.ph:                   ; preds = %for.body5
  %arrayidx7.i.i = getelementptr inbounds i8, ptr %arrayidx7, i64 4
  %arrayidx12.i.i = getelementptr inbounds i8, ptr %arrayidx7, i64 8
  %arrayidx33 = getelementptr inbounds %class.btVector3, ptr %supportVerticesOut, i64 %indvars.iv39
  %arrayidx35 = getelementptr inbounds i8, ptr %arrayidx33, i64 12
  br label %arrayctor.loop.preheader

arrayctor.loop.preheader:                         ; preds = %arrayctor.loop.preheader.lr.ph, %for.inc45
  %k.030 = phi i32 [ 0, %arrayctor.loop.preheader.lr.ph ], [ %add, %for.inc45 ]
  %vtable12 = load ptr, ptr %this, align 8
  %vfn13 = getelementptr inbounds i8, ptr %vtable12, i64 200
  %1 = load ptr, ptr %vfn13, align 8
  %call14 = call noundef i32 %1(ptr noundef nonnull align 8 dereferenceable(80) %this)
  %sub = sub nsw i32 %call14, %k.030
  %cmp15 = icmp slt i32 %sub, 128
  br i1 %cmp15, label %cond.end, label %for.body22.preheader

cond.end:                                         ; preds = %arrayctor.loop.preheader
  %vtable16 = load ptr, ptr %this, align 8
  %vfn17 = getelementptr inbounds i8, ptr %vtable16, i64 200
  %2 = load ptr, ptr %vfn17, align 8
  %call18 = call noundef i32 %2(ptr noundef nonnull align 8 dereferenceable(80) %this)
  %sub19 = sub nsw i32 %call18, %k.030
  %cmp2124 = icmp sgt i32 %sub19, 0
  br i1 %cmp2124, label %for.body22.preheader, label %_ZNK9btVector36maxDotEPKS_lRf.exit

for.body22.preheader:                             ; preds = %arrayctor.loop.preheader, %cond.end
  %cond47 = phi i32 [ %sub19, %cond.end ], [ 128, %arrayctor.loop.preheader ]
  %wide.trip.count37 = zext nneg i32 %cond47 to i64
  br label %for.body22

for.body22:                                       ; preds = %for.body22.preheader, %for.body22
  %indvars.iv34 = phi i64 [ 0, %for.body22.preheader ], [ %indvars.iv.next35, %for.body22 ]
  %arrayidx24 = getelementptr inbounds [128 x %class.btVector3], ptr %temp, i64 0, i64 %indvars.iv34
  %vtable25 = load ptr, ptr %this, align 8
  %vfn26 = getelementptr inbounds i8, ptr %vtable25, i64 224
  %3 = load ptr, ptr %vfn26, align 8
  %4 = trunc i64 %indvars.iv34 to i32
  call void %3(ptr noundef nonnull align 8 dereferenceable(80) %this, i32 noundef %4, ptr noundef nonnull align 4 dereferenceable(16) %arrayidx24)
  %indvars.iv.next35 = add nuw nsw i64 %indvars.iv34, 1
  %exitcond38.not = icmp eq i64 %indvars.iv.next35, %wide.trip.count37
  br i1 %exitcond38.not, label %for.end29, label %for.body22, !llvm.loop !19

for.end29:                                        ; preds = %for.body22
  %conv = zext nneg i32 %cond47 to i64
  %5 = load float, ptr %arrayidx7, align 4
  %6 = load float, ptr %arrayidx7.i.i, align 4
  %7 = load float, ptr %arrayidx12.i.i, align 4
  br label %for.body.i

for.body.i:                                       ; preds = %for.body.i, %for.end29
  %indvars.iv.i = phi i64 [ 0, %for.end29 ], [ %indvars.iv.next.i, %for.body.i ]
  %maxDot1.09.i = phi float [ 0xC7EFFFFFE0000000, %for.end29 ], [ %maxDot1.1.i, %for.body.i ]
  %ptIndex.08.i = phi i32 [ -1, %for.end29 ], [ %ptIndex.1.i, %for.body.i ]
  %arrayidx.i = getelementptr inbounds %class.btVector3, ptr %temp, i64 %indvars.iv.i
  %8 = load float, ptr %arrayidx.i, align 16
  %arrayidx5.i.i = getelementptr inbounds i8, ptr %arrayidx.i, i64 4
  %9 = load float, ptr %arrayidx5.i.i, align 4
  %mul8.i.i = fmul float %6, %9
  %10 = call float @llvm.fmuladd.f32(float %8, float %5, float %mul8.i.i)
  %arrayidx10.i.i = getelementptr inbounds i8, ptr %arrayidx.i, i64 8
  %11 = load float, ptr %arrayidx10.i.i, align 8
  %12 = call noundef float @llvm.fmuladd.f32(float %11, float %7, float %10)
  %cmp2.i = fcmp ogt float %12, %maxDot1.09.i
  %13 = trunc i64 %indvars.iv.i to i32
  %ptIndex.1.i = select i1 %cmp2.i, i32 %13, i32 %ptIndex.08.i
  %maxDot1.1.i = select i1 %cmp2.i, float %12, float %maxDot1.09.i
  %indvars.iv.next.i = add nuw nsw i64 %indvars.iv.i, 1
  %exitcond.not.i = icmp eq i64 %indvars.iv.next.i, %conv
  br i1 %exitcond.not.i, label %for.end.loopexit.i, label %for.body.i, !llvm.loop !16

for.end.loopexit.i:                               ; preds = %for.body.i
  %14 = sext i32 %ptIndex.1.i to i64
  br label %_ZNK9btVector36maxDotEPKS_lRf.exit

_ZNK9btVector36maxDotEPKS_lRf.exit:               ; preds = %cond.end, %for.end.loopexit.i
  %ptIndex.0.lcssa.i = phi i64 [ %14, %for.end.loopexit.i ], [ -1, %cond.end ]
  %maxDot1.0.lcssa.i = phi float [ %maxDot1.1.i, %for.end.loopexit.i ], [ 0xC7EFFFFFE0000000, %cond.end ]
  %15 = load float, ptr %arrayidx35, align 4
  %cmp36 = fcmp ogt float %maxDot1.0.lcssa.i, %15
  br i1 %cmp36, label %if.then, label %for.inc45

if.then:                                          ; preds = %_ZNK9btVector36maxDotEPKS_lRf.exit
  %arrayidx38 = getelementptr inbounds [128 x %class.btVector3], ptr %temp, i64 0, i64 %ptIndex.0.lcssa.i
  call void @llvm.memcpy.p0.p0.i64(ptr noundef nonnull align 4 dereferenceable(16) %arrayidx33, ptr noundef nonnull align 16 dereferenceable(16) %arrayidx38, i64 12, i1 false)
  store float %maxDot1.0.lcssa.i, ptr %arrayidx35, align 4
  br label %for.inc45

for.inc45:                                        ; preds = %_ZNK9btVector36maxDotEPKS_lRf.exit, %if.then
  %add = add nuw nsw i32 %k.030, 128
  %vtable = load ptr, ptr %this, align 8
  %vfn = getelementptr inbounds i8, ptr %vtable, i64 200
  %16 = load ptr, ptr %vfn, align 8
  %call9 = call noundef i32 %16(ptr noundef nonnull align 8 dereferenceable(80) %this)
  %cmp10 = icmp slt i32 %add, %call9
  br i1 %cmp10, label %arrayctor.loop.preheader, label %for.inc47, !llvm.loop !20

for.inc47:                                        ; preds = %for.inc45, %for.body5
  %indvars.iv.next40 = add nuw nsw i64 %indvars.iv39, 1
  %exitcond43.not = icmp eq i64 %indvars.iv.next40, %wide.trip.count42
  br i1 %exitcond43.not, label %for.end49, label %for.body5, !llvm.loop !21

for.end49:                                        ; preds = %for.inc47, %entry, %for.cond3.preheader
  ret void
}